#include <math.h>
#include <stdio.h>
#include <stdlib.h>
#include <string.h>

main()
{
int x,a,b,c,d,e;
scanf("%d",&x);
a=x/10000,b=x/1000-a*10,c=x/100-a*100-b*10,d=x/10-a*1000-b*100-c*10,e=x-a*10000-b*1000-c*100-d*10;
if(a!=0) printf("%d%d%d%d%d",e,d,c,b,a);
if(a==0&&b!=0) printf("%d%d%d%d",e,d,c,b);
if(b==0&&c!=0) printf("%d%d%d",e,d,c);
if(c==0&&b!=0) printf("%d%d",e,d);
if(b==0&&a!=0) printf("%d",e);
}